target datalayout = "e-m:e-p270:32:32-p271:32:32-p272:64:64-i64:64-i128:128-f80:128-n8:16:32:64-S128"
target triple = "x86_64-unknown-linux-gnu"

%struct.ecc_set_type = type { i32, i32, ptr, ptr, ptr, ptr, ptr, ptr, ptr, ptr, i32, i32, i32 }

; Function Attrs: nounwind uwtable
define i32 @wc_ecc_import_raw(ptr noundef %key, ptr noundef %qx, ptr noundef %qy, ptr noundef %d, ptr noundef %curveName) #0 {
entry:
  %retval = alloca i32, align 4
  %key.addr = alloca ptr, align 8
  %qx.addr = alloca ptr, align 8
  %qy.addr = alloca ptr, align 8
  %d.addr = alloca ptr, align 8
  %curveName.addr = alloca ptr, align 8
  %err = alloca i32, align 4
  %x = alloca i32, align 4
  store ptr %key, ptr %key.addr, align 8
  store ptr %qx, ptr %qx.addr, align 8
  store ptr %qy, ptr %qy.addr, align 8
  store ptr %d, ptr %d.addr, align 8
  store ptr %curveName, ptr %curveName.addr, align 8
  %0 = load ptr, ptr %key.addr, align 8
  %cmp = icmp eq ptr %0, null
  br i1 %cmp, label %if.then, label %lor.lhs.false

lor.lhs.false:                                    ; preds = %entry
  %1 = load ptr, ptr %qx.addr, align 8
  %cmp1 = icmp eq ptr %1, null
  br i1 %cmp1, label %if.then, label %lor.lhs.false2

lor.lhs.false2:                                   ; preds = %lor.lhs.false
  %2 = load ptr, ptr %qy.addr, align 8
  %cmp3 = icmp eq ptr %2, null
  br i1 %cmp3, label %if.then, label %lor.lhs.false4

lor.lhs.false4:                                   ; preds = %lor.lhs.false2
  %3 = load ptr, ptr %curveName.addr, align 8
  %cmp5 = icmp eq ptr %3, null
  br i1 %cmp5, label %if.then, label %if.end

if.then:                                          ; preds = %lor.lhs.false4, %lor.lhs.false2, %lor.lhs.false, %entry
  store i32 -173, ptr %retval, align 4
  br label %return

if.end:                                           ; preds = %lor.lhs.false4
  store i32 0, ptr %x, align 4
  br label %for.cond

for.cond:                                         ; preds = %for.inc, %if.end
  %4 = load i32, ptr %x, align 4
  %idxprom = sext i32 %4 to i64
  %arrayidx = getelementptr inbounds [6 x %struct.ecc_set_type], ptr @ecc_sets, i64 0, i64 %idxprom
  %size = getelementptr inbounds %struct.ecc_set_type, ptr %arrayidx, i32 0, i32 0
  %5 = load i32, ptr %size, align 8
  %cmp6 = icmp ne i32 %5, 0
  br i1 %cmp6, label %for.body, label %for.end

for.body:                                         ; preds = %for.cond
  %6 = load i32, ptr %x, align 4
  %idxprom7 = sext i32 %6 to i64
  %arrayidx8 = getelementptr inbounds [6 x %struct.ecc_set_type], ptr @ecc_sets, i64 0, i64 %idxprom7
  %name = getelementptr inbounds %struct.ecc_set_type, ptr %arrayidx8, i32 0, i32 2
  %7 = load ptr, ptr %name, align 8
  %8 = load ptr, ptr %curveName.addr, align 8
  %9 = load ptr, ptr %curveName.addr, align 8
  %call = call i64 @strlen(ptr noundef %9) #6
  %call9 = call i32 @strncmp(ptr noundef %7, ptr noundef %8, i64 noundef %call) #6
  %cmp10 = icmp eq i32 %call9, 0
  br i1 %cmp10, label %if.then11, label %if.end12

if.then11:                                        ; preds = %for.body
  br label %for.end

if.end12:                                         ; preds = %for.body
  br label %for.inc

for.inc:                                          ; preds = %if.end12
  %10 = load i32, ptr %x, align 4
  %inc = add nsw i32 %10, 1
  store i32 %inc, ptr %x, align 4
  br label %for.cond, !llvm.loop !29

for.end:                                          ; preds = %if.then11, %for.cond
  %11 = load i32, ptr %x, align 4
  %idxprom13 = sext i32 %11 to i64
  %arrayidx14 = getelementptr inbounds [6 x %struct.ecc_set_type], ptr @ecc_sets, i64 0, i64 %idxprom13
  %size15 = getelementptr inbounds %struct.ecc_set_type, ptr %arrayidx14, i32 0, i32 0
  %12 = load i32, ptr %size15, align 8
  %cmp16 = icmp eq i32 %12, 0
  br i1 %cmp16, label %if.then17, label %if.else

if.then17:                                        ; preds = %for.end
  br label %do.body

do.body:                                          ; preds = %if.then17
  br label %do.end

do.end:                                           ; preds = %do.body
  store i32 -140, ptr %err, align 4
  br label %if.end21

if.else:                                          ; preds = %for.end
  %13 = load ptr, ptr %key.addr, align 8
  %14 = load ptr, ptr %qx.addr, align 8
  %15 = load ptr, ptr %qy.addr, align 8
  %16 = load ptr, ptr %d.addr, align 8
  %17 = load i32, ptr %x, align 4
  %idxprom18 = sext i32 %17 to i64
  %arrayidx19 = getelementptr inbounds [6 x %struct.ecc_set_type], ptr @ecc_sets, i64 0, i64 %idxprom18
  %id = getelementptr inbounds %struct.ecc_set_type, ptr %arrayidx19, i32 0, i32 1
  %18 = load i32, ptr %id, align 4
  %call20 = call i32 @wc_ecc_import_raw_private(ptr noundef %13, ptr noundef %14, ptr noundef %15, ptr noundef %16, i32 noundef %18, i32 noundef 1)
  store i32 %call20, ptr %retval, align 4
  br label %return

if.end21:                                         ; preds = %do.end
  %19 = load i32, ptr %err, align 4
  store i32 %19, ptr %retval, align 4
  br label %return

return:                                           ; preds = %if.end21, %if.else, %if.then
  %20 = load i32, ptr %retval, align 4
  ret i32 %20
}