; Function Attrs: nounwind uwtable
define i32 @wc_ecc_import_raw(ptr noundef %key, ptr noundef %qx, ptr noundef %qy, ptr noundef %d, ptr noundef readonly %curveName) local_unnamed_addr #2 {
entry:
  %cmp = icmp eq ptr %key, null
  %cmp1 = icmp eq ptr %qx, null
  %or.cond = or i1 %cmp, %cmp1
  %cmp3 = icmp eq ptr %qy, null
  %or.cond1 = or i1 %or.cond, %cmp3
  %cmp5 = icmp eq ptr %curveName, null
  %or.cond2 = or i1 %or.cond1, %cmp5
  br i1 %or.cond2, label %return, label %for.cond.preheader

for.cond.preheader:                               ; preds = %entry
  %call = tail call i64 @strlen(ptr noundef nonnull dereferenceable(1) %curveName) #20
  br label %for.body

for.cond:                                         ; preds = %for.body
  %indvars.iv.next = add nuw nsw i64 %indvars.iv, 1
  %arrayidx = getelementptr inbounds nuw [6 x %struct.ecc_set_type], ptr @ecc_sets, i64 0, i64 %indvars.iv.next
  %exitcond = icmp eq i64 %indvars.iv.next, 5
  br i1 %exitcond, label %return, label %for.body, !llvm.loop !26

for.body:                                         ; preds = %for.cond.preheader, %for.cond
  %indvars.iv = phi i64 [ 0, %for.cond.preheader ], [ %indvars.iv.next, %for.cond ]
  %arrayidx14 = phi ptr [ @ecc_sets, %for.cond.preheader ], [ %arrayidx, %for.cond ]
  %name = getelementptr inbounds nuw i8, ptr %arrayidx14, i64 8
  %0 = load ptr, ptr %name, align 8
  %call9 = tail call i32 @strncmp(ptr noundef %0, ptr noundef nonnull %curveName, i64 noundef %call) #20
  %cmp10 = icmp eq i32 %call9, 0
  br i1 %cmp10, label %if.else, label %for.cond

if.else:                                          ; preds = %for.body
  %id = getelementptr inbounds nuw i8, ptr %arrayidx14, i64 4
  %1 = load i32, ptr %id, align 4
  %call20 = tail call fastcc i32 @wc_ecc_import_raw_private(ptr noundef %key, ptr noundef %qx, ptr noundef %qy, ptr noundef %d, i32 noundef %1, i32 noundef 1)
  br label %return

return:                                           ; preds = %for.cond, %entry, %if.else
  %retval.0 = phi i32 [ %call20, %if.else ], [ -173, %entry ], [ -140, %for.cond ]
  ret i32 %retval.0
}